; ModuleID = '9/114.c'
source_filename = "9/114.c"
target datalayout = "e-m:e-p270:32:32-p271:32:32-p272:64:64-i64:64-f80:128-n8:16:32:64-S128"
target triple = "x86_64-pc-linux-gnu"

%struct.pa = type { [10 x i8], i32 }

@.str = private unnamed_addr constant [3 x i8] c"%d\00", align 1
@.str.1 = private unnamed_addr constant [5 x i8] c"%s%d\00", align 1
@pa = common dso_local global [101 x %struct.pa] zeroinitializer, align 16
@.str.2 = private unnamed_addr constant [4 x i8] c"%s\0A\00", align 1

; Function Attrs: noinline nounwind uwtable
define dso_local i32 @main() #0 {
  %1 = alloca i32, align 4
  %2 = alloca i32, align 4
  %3 = alloca i32, align 4
  %4 = alloca i32, align 4
  %5 = alloca i32, align 4
  %6 = alloca i32, align 4
  %7 = alloca [100 x i32], align 16
  %8 = alloca [100 x i32], align 16
  store i32 0, i32* %1, align 4
  store i32 0, i32* %5, align 4
  store i32 0, i32* %6, align 4
  %9 = call i32 (i8*, ...) @__isoc99_scanf(i8* getelementptr inbounds ([3 x i8], [3 x i8]* @.str, i64 0, i64 0), i32* %2)
  store i32 0, i32* %3, align 4
  br label %10

10:                                               ; preds = %25, %0
  %11 = load i32, i32* %3, align 4
  %12 = load i32, i32* %2, align 4
  %13 = icmp slt i32 %11, %12
  br i1 %13, label %14, label %28

14:                                               ; preds = %10
  %15 = load i32, i32* %3, align 4
  %16 = sext i32 %15 to i64
  %17 = getelementptr inbounds [101 x %struct.pa], [101 x %struct.pa]* @pa, i64 0, i64 %16
  %18 = getelementptr inbounds %struct.pa, %struct.pa* %17, i32 0, i32 0
  %19 = getelementptr inbounds [10 x i8], [10 x i8]* %18, i64 0, i64 0
  %20 = load i32, i32* %3, align 4
  %21 = sext i32 %20 to i64
  %22 = getelementptr inbounds [101 x %struct.pa], [101 x %struct.pa]* @pa, i64 0, i64 %21
  %23 = getelementptr inbounds %struct.pa, %struct.pa* %22, i32 0, i32 1
  %24 = call i32 (i8*, ...) @__isoc99_scanf(i8* getelementptr inbounds ([5 x i8], [5 x i8]* @.str.1, i64 0, i64 0), i8* %19, i32* %23)
  br label %25

25:                                               ; preds = %14
  %26 = load i32, i32* %3, align 4
  %27 = add nsw i32 %26, 1
  store i32 %27, i32* %3, align 4
  br label %10

28:                                               ; preds = %10
  store i32 0, i32* %3, align 4
  br label %29

29:                                               ; preds = %55, %28
  %30 = load i32, i32* %3, align 4
  %31 = load i32, i32* %2, align 4
  %32 = icmp slt i32 %30, %31
  br i1 %32, label %33, label %58

33:                                               ; preds = %29
  %34 = load i32, i32* %3, align 4
  %35 = sext i32 %34 to i64
  %36 = getelementptr inbounds [101 x %struct.pa], [101 x %struct.pa]* @pa, i64 0, i64 %35
  %37 = getelementptr inbounds %struct.pa, %struct.pa* %36, i32 0, i32 1
  %38 = load i32, i32* %37, align 4
  %39 = icmp sge i32 %38, 60
  br i1 %39, label %40, label %47

40:                                               ; preds = %33
  %41 = load i32, i32* %3, align 4
  %42 = load i32, i32* %5, align 4
  %43 = sext i32 %42 to i64
  %44 = getelementptr inbounds [100 x i32], [100 x i32]* %7, i64 0, i64 %43
  store i32 %41, i32* %44, align 4
  %45 = load i32, i32* %5, align 4
  %46 = add nsw i32 %45, 1
  store i32 %46, i32* %5, align 4
  br label %54

47:                                               ; preds = %33
  %48 = load i32, i32* %3, align 4
  %49 = load i32, i32* %6, align 4
  %50 = sext i32 %49 to i64
  %51 = getelementptr inbounds [100 x i32], [100 x i32]* %8, i64 0, i64 %50
  store i32 %48, i32* %51, align 4
  %52 = load i32, i32* %6, align 4
  %53 = add nsw i32 %52, 1
  store i32 %53, i32* %6, align 4
  br label %54

54:                                               ; preds = %47, %40
  br label %55

55:                                               ; preds = %54
  %56 = load i32, i32* %3, align 4
  %57 = add nsw i32 %56, 1
  store i32 %57, i32* %3, align 4
  br label %29

58:                                               ; preds = %29
  store i32 1, i32* %3, align 4
  br label %59

59:                                               ; preds = %125, %58
  %60 = load i32, i32* %3, align 4
  %61 = load i32, i32* %5, align 4
  %62 = icmp slt i32 %60, %61
  br i1 %62, label %63, label %128

63:                                               ; preds = %59
  store i32 0, i32* %4, align 4
  br label %64

64:                                               ; preds = %121, %63
  %65 = load i32, i32* %4, align 4
  %66 = load i32, i32* %5, align 4
  %67 = load i32, i32* %3, align 4
  %68 = sub nsw i32 %66, %67
  %69 = icmp slt i32 %65, %68
  br i1 %69, label %70, label %124

70:                                               ; preds = %64
  %71 = load i32, i32* %4, align 4
  %72 = sext i32 %71 to i64
  %73 = getelementptr inbounds [100 x i32], [100 x i32]* %7, i64 0, i64 %72
  %74 = load i32, i32* %73, align 4
  %75 = sext i32 %74 to i64
  %76 = getelementptr inbounds [101 x %struct.pa], [101 x %struct.pa]* @pa, i64 0, i64 %75
  %77 = getelementptr inbounds %struct.pa, %struct.pa* %76, i32 0, i32 1
  %78 = load i32, i32* %77, align 4
  %79 = load i32, i32* %4, align 4
  %80 = add nsw i32 %79, 1
  %81 = sext i32 %80 to i64
  %82 = getelementptr inbounds [100 x i32], [100 x i32]* %7, i64 0, i64 %81
  %83 = load i32, i32* %82, align 4
  %84 = sext i32 %83 to i64
  %85 = getelementptr inbounds [101 x %struct.pa], [101 x %struct.pa]* @pa, i64 0, i64 %84
  %86 = getelementptr inbounds %struct.pa, %struct.pa* %85, i32 0, i32 1
  %87 = load i32, i32* %86, align 4
  %88 = icmp slt i32 %78, %87
  br i1 %88, label %89, label %120

89:                                               ; preds = %70
  %90 = load i32, i32* %4, align 4
  %91 = sext i32 %90 to i64
  %92 = getelementptr inbounds [100 x i32], [100 x i32]* %7, i64 0, i64 %91
  %93 = load i32, i32* %92, align 4
  %94 = sext i32 %93 to i64
  %95 = getelementptr inbounds [101 x %struct.pa], [101 x %struct.pa]* @pa, i64 0, i64 %94
  %96 = bitcast %struct.pa* %95 to i8*
  call void @llvm.memcpy.p0i8.p0i8.i64(i8* align 16 getelementptr inbounds ([101 x %struct.pa], [101 x %struct.pa]* @pa, i64 0, i64 100, i32 0, i32 0), i8* align 16 %96, i64 16, i1 false)
  %97 = load i32, i32* %4, align 4
  %98 = sext i32 %97 to i64
  %99 = getelementptr inbounds [100 x i32], [100 x i32]* %7, i64 0, i64 %98
  %100 = load i32, i32* %99, align 4
  %101 = sext i32 %100 to i64
  %102 = getelementptr inbounds [101 x %struct.pa], [101 x %struct.pa]* @pa, i64 0, i64 %101
  %103 = load i32, i32* %4, align 4
  %104 = add nsw i32 %103, 1
  %105 = sext i32 %104 to i64
  %106 = getelementptr inbounds [100 x i32], [100 x i32]* %7, i64 0, i64 %105
  %107 = load i32, i32* %106, align 4
  %108 = sext i32 %107 to i64
  %109 = getelementptr inbounds [101 x %struct.pa], [101 x %struct.pa]* @pa, i64 0, i64 %108
  %110 = bitcast %struct.pa* %102 to i8*
  %111 = bitcast %struct.pa* %109 to i8*
  call void @llvm.memcpy.p0i8.p0i8.i64(i8* align 16 %110, i8* align 16 %111, i64 16, i1 false)
  %112 = load i32, i32* %4, align 4
  %113 = add nsw i32 %112, 1
  %114 = sext i32 %113 to i64
  %115 = getelementptr inbounds [100 x i32], [100 x i32]* %7, i64 0, i64 %114
  %116 = load i32, i32* %115, align 4
  %117 = sext i32 %116 to i64
  %118 = getelementptr inbounds [101 x %struct.pa], [101 x %struct.pa]* @pa, i64 0, i64 %117
  %119 = bitcast %struct.pa* %118 to i8*
  call void @llvm.memcpy.p0i8.p0i8.i64(i8* align 16 %119, i8* align 16 getelementptr inbounds ([101 x %struct.pa], [101 x %struct.pa]* @pa, i64 0, i64 100, i32 0, i32 0), i64 16, i1 false)
  br label %120

120:                                              ; preds = %89, %70
  br label %121

121:                                              ; preds = %120
  %122 = load i32, i32* %4, align 4
  %123 = add nsw i32 %122, 1
  store i32 %123, i32* %4, align 4
  br label %64

124:                                              ; preds = %64
  br label %125

125:                                              ; preds = %124
  %126 = load i32, i32* %3, align 4
  %127 = add nsw i32 %126, 1
  store i32 %127, i32* %3, align 4
  br label %59

128:                                              ; preds = %59
  store i32 0, i32* %3, align 4
  br label %129

129:                                              ; preds = %143, %128
  %130 = load i32, i32* %3, align 4
  %131 = load i32, i32* %5, align 4
  %132 = icmp slt i32 %130, %131
  br i1 %132, label %133, label %146

133:                                              ; preds = %129
  %134 = load i32, i32* %3, align 4
  %135 = sext i32 %134 to i64
  %136 = getelementptr inbounds [100 x i32], [100 x i32]* %7, i64 0, i64 %135
  %137 = load i32, i32* %136, align 4
  %138 = sext i32 %137 to i64
  %139 = getelementptr inbounds [101 x %struct.pa], [101 x %struct.pa]* @pa, i64 0, i64 %138
  %140 = getelementptr inbounds %struct.pa, %struct.pa* %139, i32 0, i32 0
  %141 = getelementptr inbounds [10 x i8], [10 x i8]* %140, i64 0, i64 0
  %142 = call i32 (i8*, ...) @printf(i8* getelementptr inbounds ([4 x i8], [4 x i8]* @.str.2, i64 0, i64 0), i8* %141)
  br label %143

143:                                              ; preds = %133
  %144 = load i32, i32* %3, align 4
  %145 = add nsw i32 %144, 1
  store i32 %145, i32* %3, align 4
  br label %129

146:                                              ; preds = %129
  store i32 0, i32* %3, align 4
  br label %147

147:                                              ; preds = %161, %146
  %148 = load i32, i32* %3, align 4
  %149 = load i32, i32* %6, align 4
  %150 = icmp slt i32 %148, %149
  br i1 %150, label %151, label %164

151:                                              ; preds = %147
  %152 = load i32, i32* %3, align 4
  %153 = sext i32 %152 to i64
  %154 = getelementptr inbounds [100 x i32], [100 x i32]* %8, i64 0, i64 %153
  %155 = load i32, i32* %154, align 4
  %156 = sext i32 %155 to i64
  %157 = getelementptr inbounds [101 x %struct.pa], [101 x %struct.pa]* @pa, i64 0, i64 %156
  %158 = getelementptr inbounds %struct.pa, %struct.pa* %157, i32 0, i32 0
  %159 = getelementptr inbounds [10 x i8], [10 x i8]* %158, i64 0, i64 0
  %160 = call i32 (i8*, ...) @printf(i8* getelementptr inbounds ([4 x i8], [4 x i8]* @.str.2, i64 0, i64 0), i8* %159)
  br label %161

161:                                              ; preds = %151
  %162 = load i32, i32* %3, align 4
  %163 = add nsw i32 %162, 1
  store i32 %163, i32* %3, align 4
  br label %147

164:                                              ; preds = %147
  %165 = load i32, i32* %1, align 4
  ret i32 %165
}

declare dso_local i32 @__isoc99_scanf(i8*, ...) #1

; Function Attrs: argmemonly nounwind willreturn
declare void @llvm.memcpy.p0i8.p0i8.i64(i8* noalias nocapture writeonly, i8* noalias nocapture readonly, i64, i1 immarg) #2

declare dso_local i32 @printf(i8*, ...) #1


!llvm.module.flags = !{!0}
!llvm.ident = !{!1}

!0 = !{i32 1, !"wchar_size", i32 4}
!1 = !{!"clang version 10.0.0-4ubuntu1 "}
